target datalayout = "e-m:e-p270:32:32-p271:32:32-p272:64:64-i64:64-i128:128-f80:128-n8:16:32:64-S128"
target triple = "x86_64-pc-linux-gnu"

%struct.lv_ll_t = type { i32, ptr, ptr }
%struct.lv_sdl_window_t = type { ptr, ptr, ptr, ptr, ptr, ptr, ptr, ptr, ptr, i64, float, i8 }
%struct._lv_display_t = type { i32, i32, i32, i32, i32, i32, i32, ptr, ptr, ptr, ptr, ptr, i32, i32, i8, i32, i16, i32, [32 x %struct.lv_area_t], [32 x i8], i32, i32, %struct.lv_ll_t, %struct._lv_draw_buf_t, %struct._lv_draw_buf_t, ptr, ptr, ptr, ptr, ptr, ptr, ptr, ptr, ptr, ptr, i32, i8, ptr, ptr, %struct.lv_event_list_t, i8, ptr, ptr, i32, %struct.lv_area_t }
%struct._lv_draw_buf_t = type { %struct.lv_image_header_t, i32, ptr, ptr, ptr }
%struct.lv_image_header_t = type <{ i64, i32 }>
%struct.lv_event_list_t = type { %struct._lv_array_t, i8 }
%struct._lv_array_t = type { ptr, i32, i32, i32, i8 }
%struct.lv_area_t = type { i32, i32, i32, i32 }

; Function Attrs: nounwind uwtable
define internal void @window_update(ptr noundef %0) #0 {
  %2 = alloca ptr, align 8
  %3 = alloca ptr, align 8
  %4 = alloca i32, align 4
  %5 = alloca i32, align 4
  store ptr %0, ptr %2, align 8, !tbaa !11
  call void @llvm.lifetime.start.p0(i64 8, ptr %3) #8
  %6 = load ptr, ptr %2, align 8, !tbaa !11
  %7 = call ptr @lv_display_get_driver_data(ptr noundef %6)
  store ptr %7, ptr %3, align 8, !tbaa !11
  call void @llvm.lifetime.start.p0(i64 4, ptr %4) #8
  %8 = load ptr, ptr %2, align 8, !tbaa !11
  %9 = getelementptr inbounds nuw %struct._lv_display_t, ptr %8, i32 0, i32 0
  %10 = load i32, ptr %9, align 8, !tbaa !18
  store i32 %10, ptr %4, align 4, !tbaa !3
  call void @llvm.lifetime.start.p0(i64 4, ptr %5) #8
  %11 = load i32, ptr %4, align 4, !tbaa !3
  %12 = load ptr, ptr %2, align 8, !tbaa !11
  %13 = call i32 @lv_display_get_color_format(ptr noundef %12)
  %14 = call i32 @lv_draw_buf_width_to_stride(i32 noundef %11, i32 noundef %13)
  store i32 %14, ptr %5, align 4, !tbaa !3
  %15 = load ptr, ptr %3, align 8, !tbaa !11
  %16 = getelementptr inbounds nuw %struct.lv_sdl_window_t, ptr %15, i32 0, i32 2
  %17 = load ptr, ptr %16, align 8, !tbaa !43
  %18 = load ptr, ptr %3, align 8, !tbaa !11
  %19 = getelementptr inbounds nuw %struct.lv_sdl_window_t, ptr %18, i32 0, i32 5
  %20 = load ptr, ptr %19, align 8, !tbaa !47
  %21 = load i32, ptr %5, align 4, !tbaa !3
  %22 = call i32 @SDL_UpdateTexture(ptr noundef %17, ptr noundef null, ptr noundef %20, i32 noundef %21)
  %23 = load ptr, ptr %3, align 8, !tbaa !11
  %24 = getelementptr inbounds nuw %struct.lv_sdl_window_t, ptr %23, i32 0, i32 1
  %25 = load ptr, ptr %24, align 8, !tbaa !44
  %26 = call i32 @SDL_RenderClear(ptr noundef %25)
  %27 = load ptr, ptr %3, align 8, !tbaa !11
  %28 = getelementptr inbounds nuw %struct.lv_sdl_window_t, ptr %27, i32 0, i32 1
  %29 = load ptr, ptr %28, align 8, !tbaa !44
  %30 = load ptr, ptr %3, align 8, !tbaa !11
  %31 = getelementptr inbounds nuw %struct.lv_sdl_window_t, ptr %30, i32 0, i32 2
  %32 = load ptr, ptr %31, align 8, !tbaa !43
  %33 = call i32 @SDL_RenderCopy(ptr noundef %29, ptr noundef %32, ptr noundef null, ptr noundef null)
  %34 = load ptr, ptr %3, align 8, !tbaa !11
  %35 = getelementptr inbounds nuw %struct.lv_sdl_window_t, ptr %34, i32 0, i32 1
  %36 = load ptr, ptr %35, align 8, !tbaa !44
  call void @SDL_RenderPresent(ptr noundef %36)
  call void @llvm.lifetime.end.p0(i64 4, ptr %5) #8
  call void @llvm.lifetime.end.p0(i64 4, ptr %4) #8
  call void @llvm.lifetime.end.p0(i64 8, ptr %3) #8
  ret void
}

; Function Attrs: inlinehint nounwind uwtable
define internal i32 @sdl_render_mode() #3 {
  ret i32 1
}

; Function Attrs: nounwind uwtable
define internal void @flush_cb(ptr noundef %0, ptr noundef %1, ptr noundef %2) #0 {
  %4 = alloca ptr, align 8
  %5 = alloca ptr, align 8
  %6 = alloca ptr, align 8
  %7 = alloca ptr, align 8
  %8 = alloca i32, align 4
  %9 = alloca %struct.lv_area_t, align 4
  %10 = alloca i32, align 4
  %11 = alloca i32, align 4
  %12 = alloca i32, align 4
  %13 = alloca i32, align 4
  %14 = alloca i32, align 4
  %15 = alloca ptr, align 8
  %16 = alloca i32, align 4
  %17 = alloca i32, align 4
  %18 = alloca i32, align 4
  store ptr %0, ptr %4, align 8, !tbaa !11
  store ptr %1, ptr %5, align 8, !tbaa !11
  store ptr %2, ptr %6, align 8, !tbaa !11
  call void @llvm.lifetime.start.p0(i64 8, ptr %7) #8
  %19 = load ptr, ptr %4, align 8, !tbaa !11
  %20 = call ptr @lv_display_get_driver_data(ptr noundef %19)
  store ptr %20, ptr %7, align 8, !tbaa !11
  call void @llvm.lifetime.start.p0(i64 4, ptr %8) #8
  %21 = load ptr, ptr %4, align 8, !tbaa !11
  %22 = call i32 @lv_display_get_color_format(ptr noundef %21)
  store i32 %22, ptr %8, align 4, !tbaa !3
  %23 = call i32 @sdl_render_mode()
  %24 = icmp eq i32 %23, 0
  br i1 %24, label %25, label %105

25:                                               ; preds = %3
  call void @llvm.lifetime.start.p0(i64 16, ptr %9) #8
  %26 = load ptr, ptr %5, align 8, !tbaa !11
  call void @llvm.memcpy.p0.p0.i64(ptr align 4 %9, ptr align 4 %26, i64 16, i1 false), !tbaa.struct !46
  %27 = load ptr, ptr %4, align 8, !tbaa !11
  call void @lv_display_rotate_area(ptr noundef %27, ptr noundef %9)
  call void @llvm.lifetime.start.p0(i64 4, ptr %10) #8
  %28 = load ptr, ptr %5, align 8, !tbaa !11
  %29 = call i32 @lv_area_get_width(ptr noundef %28)
  store i32 %29, ptr %10, align 4, !tbaa !3
  call void @llvm.lifetime.start.p0(i64 4, ptr %11) #8
  %30 = load ptr, ptr %5, align 8, !tbaa !11
  %31 = call i32 @lv_area_get_height(ptr noundef %30)
  store i32 %31, ptr %11, align 4, !tbaa !3
  call void @llvm.lifetime.start.p0(i64 4, ptr %12) #8
  %32 = load ptr, ptr %5, align 8, !tbaa !11
  %33 = call i32 @lv_area_get_width(ptr noundef %32)
  %34 = load i32, ptr %8, align 4, !tbaa !3
  %35 = call i32 @lv_draw_buf_width_to_stride(i32 noundef %33, i32 noundef %34)
  store i32 %35, ptr %12, align 4, !tbaa !3
  call void @llvm.lifetime.start.p0(i64 4, ptr %13) #8
  %36 = load i32, ptr %8, align 4, !tbaa !3
  %37 = call zeroext i8 @lv_color_format_get_size(i32 noundef %36)
  %38 = zext i8 %37 to i32
  store i32 %38, ptr %13, align 4, !tbaa !3
  call void @llvm.lifetime.start.p0(i64 4, ptr %14) #8
  %39 = load ptr, ptr %4, align 8, !tbaa !11
  %40 = getelementptr inbounds nuw %struct._lv_display_t, ptr %39, i32 0, i32 0
  %41 = load i32, ptr %40, align 8, !tbaa !18
  %42 = load i32, ptr %8, align 4, !tbaa !3
  %43 = call i32 @lv_draw_buf_width_to_stride(i32 noundef %41, i32 noundef %42)
  store i32 %43, ptr %14, align 4, !tbaa !3
  call void @llvm.lifetime.start.p0(i64 8, ptr %15) #8
  %44 = load ptr, ptr %7, align 8, !tbaa !11
  %45 = getelementptr inbounds nuw %struct.lv_sdl_window_t, ptr %44, i32 0, i32 5
  %46 = load ptr, ptr %45, align 8, !tbaa !47
  store ptr %46, ptr %15, align 8, !tbaa !11
  %47 = getelementptr inbounds nuw %struct.lv_area_t, ptr %9, i32 0, i32 1
  %48 = load i32, ptr %47, align 4, !tbaa !48
  %49 = load i32, ptr %14, align 4, !tbaa !3
  %50 = mul nsw i32 %48, %49
  %51 = getelementptr inbounds nuw %struct.lv_area_t, ptr %9, i32 0, i32 0
  %52 = load i32, ptr %51, align 4, !tbaa !49
  %53 = load i32, ptr %13, align 4, !tbaa !3
  %54 = mul i32 %52, %53
  %55 = add i32 %50, %54
  %56 = load ptr, ptr %15, align 8, !tbaa !11
  %57 = zext i32 %55 to i64
  %58 = getelementptr inbounds nuw i8, ptr %56, i64 %57
  store ptr %58, ptr %15, align 8, !tbaa !11
  call void @llvm.lifetime.start.p0(i64 4, ptr %16) #8
  %59 = load ptr, ptr %4, align 8, !tbaa !11
  %60 = call i32 @lv_display_get_rotation(ptr noundef %59)
  store i32 %60, ptr %16, align 4, !tbaa !3
  %61 = load i32, ptr %16, align 4, !tbaa !3
  %62 = icmp eq i32 %61, 0
  br i1 %62, label %63, label %95

63:                                               ; preds = %25
  call void @llvm.lifetime.start.p0(i64 4, ptr %17) #8
  %64 = load ptr, ptr %5, align 8, !tbaa !11
  %65 = call i32 @lv_area_get_width(ptr noundef %64)
  %66 = load i32, ptr %13, align 4, !tbaa !3
  %67 = mul i32 %65, %66
  store i32 %67, ptr %17, align 4, !tbaa !3
  call void @llvm.lifetime.start.p0(i64 4, ptr %18) #8
  %68 = load ptr, ptr %5, align 8, !tbaa !11
  %69 = getelementptr inbounds nuw %struct.lv_area_t, ptr %68, i32 0, i32 1
  %70 = load i32, ptr %69, align 4, !tbaa !48
  store i32 %70, ptr %18, align 4, !tbaa !3
  br label %71

71:                                               ; preds = %91, %63
  %72 = load i32, ptr %18, align 4, !tbaa !3
  %73 = load ptr, ptr %5, align 8, !tbaa !11
  %74 = getelementptr inbounds nuw %struct.lv_area_t, ptr %73, i32 0, i32 3
  %75 = load i32, ptr %74, align 4, !tbaa !50
  %76 = icmp sle i32 %72, %75
  br i1 %76, label %77, label %94

77:                                               ; preds = %71
  %78 = load ptr, ptr %15, align 8, !tbaa !11
  %79 = load ptr, ptr %6, align 8, !tbaa !11
  %80 = load i32, ptr %17, align 4, !tbaa !3
  %81 = zext i32 %80 to i64
  %82 = call ptr @lv_memcpy(ptr noundef %78, ptr noundef %79, i64 noundef %81)
  %83 = load i32, ptr %12, align 4, !tbaa !3
  %84 = load ptr, ptr %6, align 8, !tbaa !11
  %85 = zext i32 %83 to i64
  %86 = getelementptr inbounds nuw i8, ptr %84, i64 %85
  store ptr %86, ptr %6, align 8, !tbaa !11
  %87 = load i32, ptr %14, align 4, !tbaa !3
  %88 = load ptr, ptr %15, align 8, !tbaa !11
  %89 = sext i32 %87 to i64
  %90 = getelementptr inbounds i8, ptr %88, i64 %89
  store ptr %90, ptr %15, align 8, !tbaa !11
  br label %91

91:                                               ; preds = %77
  %92 = load i32, ptr %18, align 4, !tbaa !3
  %93 = add nsw i32 %92, 1
  store i32 %93, ptr %18, align 4, !tbaa !3
  br label %71, !llvm.loop !51

94:                                               ; preds = %71
  call void @llvm.lifetime.end.p0(i64 4, ptr %18) #8
  call void @llvm.lifetime.end.p0(i64 4, ptr %17) #8
  br label %104

95:                                               ; preds = %25
  %96 = load ptr, ptr %6, align 8, !tbaa !11
  %97 = load ptr, ptr %15, align 8, !tbaa !11
  %98 = load i32, ptr %10, align 4, !tbaa !3
  %99 = load i32, ptr %11, align 4, !tbaa !3
  %100 = load i32, ptr %12, align 4, !tbaa !3
  %101 = load i32, ptr %14, align 4, !tbaa !3
  %102 = load i32, ptr %16, align 4, !tbaa !3
  %103 = load i32, ptr %8, align 4, !tbaa !3
  call void @lv_draw_sw_rotate(ptr noundef %96, ptr noundef %97, i32 noundef %98, i32 noundef %99, i32 noundef %100, i32 noundef %101, i32 noundef %102, i32 noundef %103)
  br label %104

104:                                              ; preds = %95, %94
  call void @llvm.lifetime.end.p0(i64 4, ptr %16) #8
  call void @llvm.lifetime.end.p0(i64 8, ptr %15) #8
  call void @llvm.lifetime.end.p0(i64 4, ptr %14) #8
  call void @llvm.lifetime.end.p0(i64 4, ptr %13) #8
  call void @llvm.lifetime.end.p0(i64 4, ptr %12) #8
  call void @llvm.lifetime.end.p0(i64 4, ptr %11) #8
  call void @llvm.lifetime.end.p0(i64 4, ptr %10) #8
  call void @llvm.lifetime.end.p0(i64 16, ptr %9) #8
  br label %105

105:                                              ; preds = %104, %3
  %106 = load ptr, ptr %4, align 8, !tbaa !11
  %107 = call zeroext i1 @lv_display_flush_is_last(ptr noundef %106)
  br i1 %107, label %108, label %117

108:                                              ; preds = %105
  %109 = call i32 @sdl_render_mode()
  %110 = icmp ne i32 %109, 0
  br i1 %110, label %111, label %115

111:                                              ; preds = %108
  %112 = load ptr, ptr %6, align 8, !tbaa !11
  %113 = load ptr, ptr %7, align 8, !tbaa !11
  %114 = getelementptr inbounds nuw %struct.lv_sdl_window_t, ptr %113, i32 0, i32 5
  store ptr %112, ptr %114, align 8, !tbaa !47
  br label %115

115:                                              ; preds = %111, %108
  %116 = load ptr, ptr %4, align 8, !tbaa !11
  call void @window_update(ptr noundef %116)
  br label %117

117:                                              ; preds = %115, %105
  %118 = load ptr, ptr %4, align 8, !tbaa !11
  call void @lv_display_flush_ready(ptr noundef %118)
  call void @llvm.lifetime.end.p0(i64 4, ptr %8) #8
  call void @llvm.lifetime.end.p0(i64 8, ptr %7) #8
  ret void
}