; Function Attrs: nounwind uwtable
define internal void @flush_cb(ptr noundef %0, ptr nocapture readnone %1, ptr noundef %2) #0 {
  %4 = tail call ptr @lv_display_get_driver_data(ptr noundef %0) #6
  %5 = tail call i32 @lv_display_get_color_format(ptr noundef %0) #6
  %6 = tail call zeroext i1 @lv_display_flush_is_last(ptr noundef %0) #6
  br i1 %6, label %7, label %25

7:                                                ; preds = %3
  %8 = getelementptr inbounds nuw i8, ptr %4, i64 40
  store ptr %2, ptr %8, align 8, !tbaa !31
  %9 = tail call ptr @lv_display_get_driver_data(ptr noundef %0) #6
  %10 = load i32, ptr %0, align 8, !tbaa !11
  %11 = tail call i32 @lv_display_get_color_format(ptr noundef nonnull %0) #6
  %12 = tail call i32 @lv_draw_buf_width_to_stride(i32 noundef %10, i32 noundef %11) #6
  %13 = getelementptr inbounds nuw i8, ptr %9, i64 16
  %14 = load ptr, ptr %13, align 8, !tbaa !30
  %15 = getelementptr inbounds nuw i8, ptr %9, i64 40
  %16 = load ptr, ptr %15, align 8, !tbaa !31
  %17 = tail call i32 @SDL_UpdateTexture(ptr noundef %14, ptr noundef null, ptr noundef %16, i32 noundef %12) #6
  %18 = getelementptr inbounds nuw i8, ptr %9, i64 8
  %19 = load ptr, ptr %18, align 8, !tbaa !23
  %20 = tail call i32 @SDL_RenderClear(ptr noundef %19) #6
  %21 = load ptr, ptr %18, align 8, !tbaa !23
  %22 = load ptr, ptr %13, align 8, !tbaa !30
  %23 = tail call i32 @SDL_RenderCopy(ptr noundef %21, ptr noundef %22, ptr noundef null, ptr noundef null) #6
  %24 = load ptr, ptr %18, align 8, !tbaa !23
  tail call void @SDL_RenderPresent(ptr noundef %24) #6
  br label %25

25:                                               ; preds = %7, %3
  tail call void @lv_display_flush_ready(ptr noundef %0) #6
  ret void
}